target datalayout = "e-m:e-p270:32:32-p271:32:32-p272:64:64-i64:64-i128:128-f80:128-n8:16:32:64-S128"
target triple = "x86_64-pc-linux-gnu"

; Function Attrs: nounwind uwtable
define internal void @interleaveBytes_c(ptr noundef %0, ptr noundef %1, ptr noundef %2, i32 noundef %3, i32 noundef %4, i32 noundef %5, i32 noundef %6, i32 noundef %7) #0 {
  %9 = alloca ptr, align 8
  %10 = alloca ptr, align 8
  %11 = alloca ptr, align 8
  %12 = alloca i32, align 4
  %13 = alloca i32, align 4
  %14 = alloca i32, align 4
  %15 = alloca i32, align 4
  %16 = alloca i32, align 4
  %17 = alloca i32, align 4
  %18 = alloca i32, align 4
  store ptr %0, ptr %9, align 8, !tbaa !4
  store ptr %1, ptr %10, align 8, !tbaa !4
  store ptr %2, ptr %11, align 8, !tbaa !4
  store i32 %3, ptr %12, align 4, !tbaa !9
  store i32 %4, ptr %13, align 4, !tbaa !9
  store i32 %5, ptr %14, align 4, !tbaa !9
  store i32 %6, ptr %15, align 4, !tbaa !9
  store i32 %7, ptr %16, align 4, !tbaa !9
  call void @llvm.lifetime.start.p0(i64 4, ptr %17) #5
  store i32 0, ptr %17, align 4, !tbaa !9
  br label %19

19:                                               ; preds = %67, %8
  %20 = load i32, ptr %17, align 4, !tbaa !9
  %21 = load i32, ptr %13, align 4, !tbaa !9
  %22 = icmp slt i32 %20, %21
  br i1 %22, label %23, label %70

23:                                               ; preds = %19
  call void @llvm.lifetime.start.p0(i64 4, ptr %18) #5
  store i32 0, ptr %18, align 4, !tbaa !9
  br label %24

24:                                               ; preds = %51, %23
  %25 = load i32, ptr %18, align 4, !tbaa !9
  %26 = load i32, ptr %12, align 4, !tbaa !9
  %27 = icmp slt i32 %25, %26
  br i1 %27, label %28, label %54

28:                                               ; preds = %24
  %29 = load ptr, ptr %9, align 8, !tbaa !4
  %30 = load i32, ptr %18, align 4, !tbaa !9
  %31 = sext i32 %30 to i64
  %32 = getelementptr inbounds i8, ptr %29, i64 %31
  %33 = load i8, ptr %32, align 1, !tbaa !13
  %34 = load ptr, ptr %11, align 8, !tbaa !4
  %35 = load i32, ptr %18, align 4, !tbaa !9
  %36 = mul nsw i32 2, %35
  %37 = add nsw i32 %36, 0
  %38 = sext i32 %37 to i64
  %39 = getelementptr inbounds i8, ptr %34, i64 %38
  store i8 %33, ptr %39, align 1, !tbaa !13
  %40 = load ptr, ptr %10, align 8, !tbaa !4
  %41 = load i32, ptr %18, align 4, !tbaa !9
  %42 = sext i32 %41 to i64
  %43 = getelementptr inbounds i8, ptr %40, i64 %42
  %44 = load i8, ptr %43, align 1, !tbaa !13
  %45 = load ptr, ptr %11, align 8, !tbaa !4
  %46 = load i32, ptr %18, align 4, !tbaa !9
  %47 = mul nsw i32 2, %46
  %48 = add nsw i32 %47, 1
  %49 = sext i32 %48 to i64
  %50 = getelementptr inbounds i8, ptr %45, i64 %49
  store i8 %44, ptr %50, align 1, !tbaa !13
  br label %51

51:                                               ; preds = %28
  %52 = load i32, ptr %18, align 4, !tbaa !9
  %53 = add nsw i32 %52, 1
  store i32 %53, ptr %18, align 4, !tbaa !9
  br label %24, !llvm.loop !85

54:                                               ; preds = %24
  %55 = load i32, ptr %16, align 4, !tbaa !9
  %56 = load ptr, ptr %11, align 8, !tbaa !4
  %57 = sext i32 %55 to i64
  %58 = getelementptr inbounds i8, ptr %56, i64 %57
  store ptr %58, ptr %11, align 8, !tbaa !4
  %59 = load i32, ptr %14, align 4, !tbaa !9
  %60 = load ptr, ptr %9, align 8, !tbaa !4
  %61 = sext i32 %59 to i64
  %62 = getelementptr inbounds i8, ptr %60, i64 %61
  store ptr %62, ptr %9, align 8, !tbaa !4
  %63 = load i32, ptr %15, align 4, !tbaa !9
  %64 = load ptr, ptr %10, align 8, !tbaa !4
  %65 = sext i32 %63 to i64
  %66 = getelementptr inbounds i8, ptr %64, i64 %65
  store ptr %66, ptr %10, align 8, !tbaa !4
  call void @llvm.lifetime.end.p0(i64 4, ptr %18) #5
  br label %67

67:                                               ; preds = %54
  %68 = load i32, ptr %17, align 4, !tbaa !9
  %69 = add nsw i32 %68, 1
  store i32 %69, ptr %17, align 4, !tbaa !9
  br label %19, !llvm.loop !86

70:                                               ; preds = %19
  call void @llvm.lifetime.end.p0(i64 4, ptr %17) #5
  ret void
}