; Function Attrs: nofree norecurse nosync nounwind memory(argmem: readwrite) uwtable
define internal void @interleaveBytes_c(ptr noundef readonly captures(none) %0, ptr noundef readonly captures(none) %1, ptr noundef writeonly captures(none) %2, i32 noundef %3, i32 noundef %4, i32 noundef %5, i32 noundef %6, i32 noundef %7) #0 {
  %9 = icmp sgt i32 %4, 0
  br i1 %9, label %.preheader.lr.ph, label %._crit_edge28

.preheader.lr.ph:                                 ; preds = %8
  %10 = icmp sgt i32 %3, 0
  %11 = sext i32 %7 to i64
  %12 = sext i32 %5 to i64
  %13 = sext i32 %6 to i64
  br i1 %10, label %.preheader.us.preheader, label %._crit_edge28

.preheader.us.preheader:                          ; preds = %.preheader.lr.ph
  %wide.trip.count = zext nneg i32 %3 to i64
  br label %.preheader.us

.preheader.us:                                    ; preds = %.preheader.us.preheader, %._crit_edge.us
  %.01927.us = phi i32 [ %25, %._crit_edge.us ], [ 0, %.preheader.us.preheader ]
  %.02026.us = phi ptr [ %23, %._crit_edge.us ], [ %0, %.preheader.us.preheader ]
  %.02125.us = phi ptr [ %24, %._crit_edge.us ], [ %1, %.preheader.us.preheader ]
  %.02224.us = phi ptr [ %22, %._crit_edge.us ], [ %2, %.preheader.us.preheader ]
  br label %14

14:                                               ; preds = %.preheader.us, %14
  %indvars.iv = phi i64 [ 0, %.preheader.us ], [ %indvars.iv.next, %14 ]
  %15 = getelementptr inbounds nuw i8, ptr %.02026.us, i64 %indvars.iv
  %16 = load i8, ptr %15, align 1, !tbaa !8
  %17 = shl nuw nsw i64 %indvars.iv, 1
  %18 = getelementptr inbounds nuw i8, ptr %.02224.us, i64 %17
  store i8 %16, ptr %18, align 1, !tbaa !8
  %19 = getelementptr inbounds nuw i8, ptr %.02125.us, i64 %indvars.iv
  %20 = load i8, ptr %19, align 1, !tbaa !8
  %21 = getelementptr inbounds nuw i8, ptr %18, i64 1
  store i8 %20, ptr %21, align 1, !tbaa !8
  %indvars.iv.next = add nuw nsw i64 %indvars.iv, 1
  %exitcond.not = icmp eq i64 %indvars.iv.next, %wide.trip.count
  br i1 %exitcond.not, label %._crit_edge.us, label %14, !llvm.loop !83

._crit_edge.us:                                   ; preds = %14
  %22 = getelementptr inbounds i8, ptr %.02224.us, i64 %11
  %23 = getelementptr inbounds i8, ptr %.02026.us, i64 %12
  %24 = getelementptr inbounds i8, ptr %.02125.us, i64 %13
  %25 = add nuw nsw i32 %.01927.us, 1
  %exitcond31.not = icmp eq i32 %25, %4
  br i1 %exitcond31.not, label %._crit_edge28, label %.preheader.us, !llvm.loop !84

._crit_edge28:                                    ; preds = %._crit_edge.us, %.preheader.lr.ph, %8
  ret void
}